target datalayout = "e-m:e-p270:32:32-p271:32:32-p272:64:64-i64:64-i128:128-f80:128-n8:16:32:64-S128"
target triple = "x86_64-pc-linux-gnu"

%"class.llvm::StringRef" = type { ptr, i64 }
%"class.llvm::SmallVectorBase" = type { ptr, i32, i32 }
%"struct.llvm::cl::GenericOptionValue" = type { ptr }
%"struct.llvm::cl::OptionValue.263" = type { %"struct.llvm::cl::OptionValueBase.base.267", [7 x i8] }
%"struct.llvm::cl::OptionValueBase.base.267" = type { %"class.llvm::cl::OptionValueCopy.base.266" }
%"class.llvm::cl::OptionValueCopy.base.266" = type <{ %"struct.llvm::cl::GenericOptionValue", ptr, i8 }>
%"class.llvm::cl::parser.269" = type { %"class.llvm::cl::generic_parser_base", %"class.llvm::SmallVector.270" }
%"class.llvm::cl::generic_parser_base" = type { ptr, ptr }
%"class.llvm::SmallVector.270" = type { %"class.llvm::SmallVectorImpl.271", %"struct.llvm::SmallVectorStorage.274" }
%"class.llvm::SmallVectorImpl.271" = type { %"class.llvm::SmallVectorTemplateBase.272" }
%"class.llvm::SmallVectorTemplateBase.272" = type { %"class.llvm::SmallVectorTemplateCommon.273" }
%"class.llvm::SmallVectorTemplateCommon.273" = type { %"class.llvm::SmallVectorBase" }
%"struct.llvm::SmallVectorStorage.274" = type { [448 x i8] }
%"class.llvm::MachinePassRegistry" = type { ptr, ptr, ptr }
%"class.llvm::cl::generic_parser_base::GenericOptionInfo" = type { %"class.llvm::StringRef", %"class.llvm::StringRef" }
%"class.llvm::cl::parser<llvm::FunctionPass *(*)()>::OptionInfo" = type { %"class.llvm::cl::generic_parser_base::GenericOptionInfo", %"struct.llvm::cl::OptionValue.263" }

@_ZN4llvm20RegisterRegAllocBaseIN12_GLOBAL__N_119RVVRegisterRegAllocEE8RegistryE = internal global %"class.llvm::MachinePassRegistry" zeroinitializer, align 8

; Function Attrs: mustprogress nounwind uwtable
define linkonce_odr hidden noundef ptr @_ZNK4llvm25SmallVectorTemplateCommonINS_2cl6parserIPFPNS_12FunctionPassEvEE10OptionInfoEvE10getFirstElEv(ptr noundef nonnull align 8 dereferenceable(16) %0) #1 comdat align 2 {
  %2 = alloca ptr, align 8
  store ptr %0, ptr %2, align 8
  %3 = load ptr, ptr %2, align 8
  %4 = getelementptr inbounds i8, ptr %3, i64 16
  ret ptr %4
}

; Function Attrs: mustprogress nounwind uwtable
define linkonce_odr hidden noundef zeroext i1 @_ZNK4llvm25SmallVectorTemplateCommonINS_2cl6parserIPFPNS_12FunctionPassEvEE10OptionInfoEvE7isSmallEv(ptr noundef nonnull align 8 dereferenceable(16) %0) #1 comdat align 2 {
  %2 = alloca ptr, align 8
  store ptr %0, ptr %2, align 8
  %3 = load ptr, ptr %2, align 8
  %4 = getelementptr inbounds nuw %"class.llvm::SmallVectorBase", ptr %3, i32 0, i32 0
  %5 = load ptr, ptr %4, align 8
  %6 = call noundef ptr @_ZNK4llvm25SmallVectorTemplateCommonINS_2cl6parserIPFPNS_12FunctionPassEvEE10OptionInfoEvE10getFirstElEv(ptr noundef nonnull align 8 dereferenceable(16) %3)
  %7 = icmp eq ptr %5, %6
  ret i1 %7
}

; Function Attrs: mustprogress nounwind uwtable
define linkonce_odr hidden void @_ZN4llvm15SmallVectorImplINS_2cl6parserIPFPNS_12FunctionPassEvEE10OptionInfoEED2Ev(ptr noundef nonnull align 8 dereferenceable(16) %0) unnamed_addr #1 comdat align 2 {
  %2 = alloca ptr, align 8
  store ptr %0, ptr %2, align 8
  %3 = load ptr, ptr %2, align 8
  %4 = call noundef zeroext i1 @_ZNK4llvm25SmallVectorTemplateCommonINS_2cl6parserIPFPNS_12FunctionPassEvEE10OptionInfoEvE7isSmallEv(ptr noundef nonnull align 8 dereferenceable(16) %3)
  br i1 %4, label %7, label %5

5:                                                ; preds = %1
  %6 = call noundef ptr @_ZN4llvm25SmallVectorTemplateCommonINS_2cl6parserIPFPNS_12FunctionPassEvEE10OptionInfoEvE5beginEv(ptr noundef nonnull align 8 dereferenceable(16) %3)
  call void @free(ptr noundef %6) #2
  br label %7

7:                                                ; preds = %5, %1
  ret void
}

; Function Attrs: mustprogress nounwind uwtable
define linkonce_odr hidden void @_ZN4llvm23SmallVectorTemplateBaseINS_2cl6parserIPFPNS_12FunctionPassEvEE10OptionInfoELb0EE13destroy_rangeEPS8_SA_(ptr noundef %0, ptr noundef %1) #1 comdat align 2 {
  %3 = alloca ptr, align 8
  %4 = alloca ptr, align 8
  store ptr %0, ptr %3, align 8
  store ptr %1, ptr %4, align 8
  br label %5

5:                                                ; preds = %9, %2
  %6 = load ptr, ptr %3, align 8
  %7 = load ptr, ptr %4, align 8
  %8 = icmp ne ptr %6, %7
  br i1 %8, label %9, label %12

9:                                                ; preds = %5
  %10 = load ptr, ptr %4, align 8
  %11 = getelementptr inbounds %"class.llvm::cl::parser<llvm::FunctionPass *(*)()>::OptionInfo", ptr %10, i32 -1
  store ptr %11, ptr %4, align 8
  br label %5, !llvm.loop !4

12:                                               ; preds = %5
  ret void
}

; Function Attrs: mustprogress nounwind uwtable
define linkonce_odr hidden noundef ptr @_ZN4llvm25SmallVectorTemplateCommonINS_2cl6parserIPFPNS_12FunctionPassEvEE10OptionInfoEvE3endEv(ptr noundef nonnull align 8 dereferenceable(16) %0) #1 comdat align 2 {
  %2 = alloca ptr, align 8
  store ptr %0, ptr %2, align 8
  %3 = load ptr, ptr %2, align 8
  %4 = call noundef ptr @_ZN4llvm25SmallVectorTemplateCommonINS_2cl6parserIPFPNS_12FunctionPassEvEE10OptionInfoEvE5beginEv(ptr noundef nonnull align 8 dereferenceable(16) %3)
  %5 = call noundef i64 @_ZNK4llvm15SmallVectorBaseIjE4sizeEv(ptr noundef nonnull align 8 dereferenceable(16) %3)
  %6 = getelementptr inbounds %"class.llvm::cl::parser<llvm::FunctionPass *(*)()>::OptionInfo", ptr %4, i64 %5
  ret ptr %6
}

; Function Attrs: mustprogress nounwind uwtable
define linkonce_odr hidden noundef ptr @_ZN4llvm25SmallVectorTemplateCommonINS_2cl6parserIPFPNS_12FunctionPassEvEE10OptionInfoEvE5beginEv(ptr noundef nonnull align 8 dereferenceable(16) %0) #1 comdat align 2 {
  %2 = alloca ptr, align 8
  store ptr %0, ptr %2, align 8
  %3 = load ptr, ptr %2, align 8
  %4 = getelementptr inbounds nuw %"class.llvm::SmallVectorBase", ptr %3, i32 0, i32 0
  %5 = load ptr, ptr %4, align 8
  ret ptr %5
}

; Function Attrs: mustprogress nounwind uwtable
define linkonce_odr hidden void @_ZN4llvm2cl19generic_parser_baseD2Ev(ptr noundef nonnull align 8 dereferenceable(16) %0) unnamed_addr #1 comdat align 2 {
  %2 = alloca ptr, align 8
  store ptr %0, ptr %2, align 8
  ret void
}

; Function Attrs: mustprogress nounwind uwtable
define linkonce_odr hidden void @_ZN4llvm11SmallVectorINS_2cl6parserIPFPNS_12FunctionPassEvEE10OptionInfoELj8EED2Ev(ptr noundef nonnull align 8 dereferenceable(464) %0) unnamed_addr #1 comdat align 2 {
  %2 = alloca ptr, align 8
  store ptr %0, ptr %2, align 8
  %3 = load ptr, ptr %2, align 8
  %4 = call noundef ptr @_ZN4llvm25SmallVectorTemplateCommonINS_2cl6parserIPFPNS_12FunctionPassEvEE10OptionInfoEvE5beginEv(ptr noundef nonnull align 8 dereferenceable(16) %3)
  %5 = call noundef ptr @_ZN4llvm25SmallVectorTemplateCommonINS_2cl6parserIPFPNS_12FunctionPassEvEE10OptionInfoEvE3endEv(ptr noundef nonnull align 8 dereferenceable(16) %3)
  call void @_ZN4llvm23SmallVectorTemplateBaseINS_2cl6parserIPFPNS_12FunctionPassEvEE10OptionInfoELb0EE13destroy_rangeEPS8_SA_(ptr noundef %4, ptr noundef %5)
  call void @_ZN4llvm15SmallVectorImplINS_2cl6parserIPFPNS_12FunctionPassEvEE10OptionInfoEED2Ev(ptr noundef nonnull align 8 dereferenceable(16) %3) #2
  ret void
}

; Function Attrs: mustprogress nounwind uwtable
define linkonce_odr hidden void @_ZN4llvm19MachinePassRegistryIPFPNS_12FunctionPassEvEE11setListenerEPNS_27MachinePassRegistryListenerIS4_EE(ptr noundef nonnull align 8 dereferenceable(24) %0, ptr noundef %1) #1 comdat align 2 {
  %3 = alloca ptr, align 8
  %4 = alloca ptr, align 8
  store ptr %0, ptr %3, align 8
  store ptr %1, ptr %4, align 8
  %5 = load ptr, ptr %3, align 8
  %6 = load ptr, ptr %4, align 8
  %7 = getelementptr inbounds nuw %"class.llvm::MachinePassRegistry", ptr %5, i32 0, i32 2
  store ptr %6, ptr %7, align 8
  ret void
}

; Function Attrs: mustprogress nounwind uwtable
define linkonce_odr hidden void @_ZN4llvm27MachinePassRegistryListenerIPFPNS_12FunctionPassEvEED2Ev(ptr noundef nonnull align 8 dereferenceable(8) %0) unnamed_addr #1 comdat align 2 {
  %2 = alloca ptr, align 8
  store ptr %0, ptr %2, align 8
  ret void
}

; Function Attrs: mustprogress nounwind uwtable
define linkonce_odr hidden void @_ZN4llvm2cl6parserIPFPNS_12FunctionPassEvEED2Ev(ptr noundef nonnull align 8 dereferenceable(480) %0) unnamed_addr #1 comdat align 2 {
  %2 = alloca ptr, align 8
  store ptr %0, ptr %2, align 8
  %3 = load ptr, ptr %2, align 8
  store ptr getelementptr inbounds inrange(-16, 64) ({ [10 x ptr] }, ptr @_ZTVN4llvm2cl6parserIPFPNS_12FunctionPassEvEEE, i32 0, i32 0, i32 2), ptr %3, align 8
  %4 = getelementptr inbounds nuw %"class.llvm::cl::parser.269", ptr %3, i32 0, i32 1
  call void @_ZN4llvm11SmallVectorINS_2cl6parserIPFPNS_12FunctionPassEvEE10OptionInfoELj8EED2Ev(ptr noundef nonnull align 8 dereferenceable(464) %4) #2
  call void @_ZN4llvm2cl19generic_parser_baseD2Ev(ptr noundef nonnull align 8 dereferenceable(16) %3) #2
  ret void
}

; Function Attrs: mustprogress nounwind uwtable
define internal void @_ZN4llvm20RegisterRegAllocBaseIN12_GLOBAL__N_119RVVRegisterRegAllocEE11setListenerEPNS_27MachinePassRegistryListenerIPFPNS_12FunctionPassEvEEE(ptr noundef %0) #1 align 2 {
  %2 = alloca ptr, align 8
  store ptr %0, ptr %2, align 8
  %3 = load ptr, ptr %2, align 8
  call void @_ZN4llvm19MachinePassRegistryIPFPNS_12FunctionPassEvEE11setListenerEPNS_27MachinePassRegistryListenerIS4_EE(ptr noundef nonnull align 8 dereferenceable(24) @_ZN4llvm20RegisterRegAllocBaseIN12_GLOBAL__N_119RVVRegisterRegAllocEE8RegistryE, ptr noundef %3)
  ret void
}

; Function Attrs: mustprogress nounwind uwtable
define internal void @_ZN4llvm18RegisterPassParserIN12_GLOBAL__N_119RVVRegisterRegAllocEED2Ev(ptr noundef nonnull align 8 dereferenceable(488) %0) unnamed_addr #1 align 2 {
  %2 = alloca ptr, align 8
  store ptr %0, ptr %2, align 8
  %3 = load ptr, ptr %2, align 8
  store ptr getelementptr inbounds inrange(-16, 40) ({ [7 x ptr], [10 x ptr] }, ptr @_ZTVN4llvm18RegisterPassParserIN12_GLOBAL__N_119RVVRegisterRegAllocEEE, i32 0, i32 0, i32 2), ptr %3, align 8
  %4 = getelementptr inbounds i8, ptr %3, i64 8
  store ptr getelementptr inbounds inrange(-16, 64) ({ [7 x ptr], [10 x ptr] }, ptr @_ZTVN4llvm18RegisterPassParserIN12_GLOBAL__N_119RVVRegisterRegAllocEEE, i32 0, i32 1, i32 2), ptr %4, align 8
  call void @_ZN4llvm20RegisterRegAllocBaseIN12_GLOBAL__N_119RVVRegisterRegAllocEE11setListenerEPNS_27MachinePassRegistryListenerIPFPNS_12FunctionPassEvEEE(ptr noundef null)
  %5 = getelementptr inbounds i8, ptr %3, i64 8
  call void @_ZN4llvm2cl6parserIPFPNS_12FunctionPassEvEED2Ev(ptr noundef nonnull align 8 dereferenceable(480) %5) #2
  call void @_ZN4llvm27MachinePassRegistryListenerIPFPNS_12FunctionPassEvEED2Ev(ptr noundef nonnull align 8 dereferenceable(8) %3) #2
  ret void
}

; Function Attrs: mustprogress nounwind uwtable
define internal void @_ZN4llvm18RegisterPassParserIN12_GLOBAL__N_119RVVRegisterRegAllocEED0Ev(ptr noundef nonnull align 8 dereferenceable(488) %0) unnamed_addr #1 align 2 {
  %2 = alloca ptr, align 8
  store ptr %0, ptr %2, align 8
  %3 = load ptr, ptr %2, align 8
  call void @_ZN4llvm18RegisterPassParserIN12_GLOBAL__N_119RVVRegisterRegAllocEED2Ev(ptr noundef nonnull align 8 dereferenceable(488) %3) #2
  call void @_ZdlPvm(ptr noundef %3, i64 noundef 488) #17
  ret void
}

; Function Attrs: nounwind uwtable
define internal void @_ZThn8_N4llvm18RegisterPassParserIN12_GLOBAL__N_119RVVRegisterRegAllocEED0Ev(ptr noundef %0) unnamed_addr #0 align 2 {
  %2 = alloca ptr, align 8
  store ptr %0, ptr %2, align 8
  %3 = load ptr, ptr %2, align 8
  %4 = getelementptr inbounds i8, ptr %3, i64 -8
  tail call void @_ZN4llvm18RegisterPassParserIN12_GLOBAL__N_119RVVRegisterRegAllocEED0Ev(ptr noundef nonnull align 8 dereferenceable(488) %4) #2
  ret void
}